target datalayout = "e-m:e-p270:32:32-p271:32:32-p272:64:64-i64:64-i128:128-f80:128-n8:16:32:64-S128"
target triple = "x86_64-pc-linux-gnu"

@hf_zbee_zcl_scenes_group_id = internal global i32 0, align 4
@hf_zbee_zcl_scenes_scene_id = internal global i32 0, align 4
@hf_zbee_zcl_scenes_transit_time = internal global i32 0, align 4
@hf_zbee_zcl_scenes_enh_transit_time = internal global i32 0, align 4
@hf_zbee_zcl_scenes_attr_str_len = internal global i32 0, align 4
@hf_zbee_zcl_scenes_attr_str = internal global i32 0, align 4
@.str.1256 = private unnamed_addr constant [13 x i8] c", String: %s\00", align 1

; Function Attrs: null_pointer_is_valid sspstrong uwtable
define internal void @dissect_zcl_scenes_add_scene(ptr noundef %0, ptr noundef %1, ptr noundef %2, i1 noundef zeroext %3) #0 {
  %5 = alloca ptr, align 8
  %6 = alloca ptr, align 8
  %7 = alloca ptr, align 8
  %8 = alloca i8, align 1
  %9 = alloca i32, align 4
  %10 = alloca ptr, align 8
  store ptr %0, ptr %5, align 8
  store ptr %1, ptr %6, align 8
  store ptr %2, ptr %7, align 8
  %11 = zext i1 %3 to i8
  store i8 %11, ptr %8, align 1
  call void @llvm.lifetime.start.p0(i64 4, ptr %9) #7
  call void @llvm.lifetime.start.p0(i64 8, ptr %10) #7
  %12 = load ptr, ptr %6, align 8
  %13 = load i32, ptr @hf_zbee_zcl_scenes_group_id, align 4
  %14 = load ptr, ptr %5, align 8
  %15 = load ptr, ptr %7, align 8
  %16 = load i32, ptr %15, align 4
  %17 = call ptr @proto_tree_add_item(ptr noundef %12, i32 noundef %13, ptr noundef %14, i32 noundef %16, i32 noundef 2, i32 noundef -2147483648)
  %18 = load ptr, ptr %7, align 8
  %19 = load i32, ptr %18, align 4
  %20 = add i32 %19, 2
  store i32 %20, ptr %18, align 4
  %21 = load ptr, ptr %6, align 8
  %22 = load i32, ptr @hf_zbee_zcl_scenes_scene_id, align 4
  %23 = load ptr, ptr %5, align 8
  %24 = load ptr, ptr %7, align 8
  %25 = load i32, ptr %24, align 4
  %26 = call ptr @proto_tree_add_item(ptr noundef %21, i32 noundef %22, ptr noundef %23, i32 noundef %25, i32 noundef 1, i32 noundef -2147483648)
  %27 = load ptr, ptr %7, align 8
  %28 = load i32, ptr %27, align 4
  %29 = add i32 %28, 1
  store i32 %29, ptr %27, align 4
  %30 = load ptr, ptr %6, align 8
  %31 = load i8, ptr %8, align 1, !range !6, !noundef !7
  %32 = trunc i8 %31 to i1
  br i1 %32, label %33, label %35

33:                                               ; preds = %4
  %34 = load i32, ptr @hf_zbee_zcl_scenes_enh_transit_time, align 4
  br label %37

35:                                               ; preds = %4
  %36 = load i32, ptr @hf_zbee_zcl_scenes_transit_time, align 4
  br label %37

37:                                               ; preds = %35, %33
  %38 = phi i32 [ %34, %33 ], [ %36, %35 ]
  %39 = load ptr, ptr %5, align 8
  %40 = load ptr, ptr %7, align 8
  %41 = load i32, ptr %40, align 4
  %42 = call ptr @proto_tree_add_item(ptr noundef %30, i32 noundef %38, ptr noundef %39, i32 noundef %41, i32 noundef 2, i32 noundef -2147483648)
  %43 = load ptr, ptr %7, align 8
  %44 = load i32, ptr %43, align 4
  %45 = add i32 %44, 2
  store i32 %45, ptr %43, align 4
  %46 = load ptr, ptr %5, align 8
  %47 = load ptr, ptr %7, align 8
  %48 = load i32, ptr %47, align 4
  %49 = call zeroext i8 @tvb_get_uint8(ptr noundef %46, i32 noundef %48)
  %50 = zext i8 %49 to i32
  store i32 %50, ptr %9, align 4
  %51 = load i32, ptr %9, align 4
  %52 = icmp eq i32 %51, 255
  br i1 %52, label %53, label %54

53:                                               ; preds = %37
  store i32 0, ptr %9, align 4
  br label %54

54:                                               ; preds = %53, %37
  %55 = load ptr, ptr %6, align 8
  %56 = load i32, ptr @hf_zbee_zcl_scenes_attr_str_len, align 4
  %57 = load ptr, ptr %5, align 8
  %58 = load ptr, ptr %7, align 8
  %59 = load i32, ptr %58, align 4
  %60 = load i32, ptr %9, align 4
  %61 = call ptr @proto_tree_add_uint(ptr noundef %55, i32 noundef %56, ptr noundef %57, i32 noundef %59, i32 noundef 1, i32 noundef %60)
  %62 = load ptr, ptr %7, align 8
  %63 = load i32, ptr %62, align 4
  %64 = add i32 %63, 1
  store i32 %64, ptr %62, align 4
  %65 = call ptr @wmem_packet_scope()
  %66 = load ptr, ptr %5, align 8
  %67 = load ptr, ptr %7, align 8
  %68 = load i32, ptr %67, align 4
  %69 = load i32, ptr %9, align 4
  %70 = call ptr @tvb_get_string_enc(ptr noundef %65, ptr noundef %66, i32 noundef %68, i32 noundef %69, i32 noundef 0)
  store ptr %70, ptr %10, align 8
  %71 = load ptr, ptr %6, align 8
  %72 = load ptr, ptr %10, align 8
  call void (ptr, ptr, ...) @proto_item_append_text(ptr noundef %71, ptr noundef @.str.1256, ptr noundef %72)
  %73 = load ptr, ptr %6, align 8
  %74 = load i32, ptr @hf_zbee_zcl_scenes_attr_str, align 4
  %75 = load ptr, ptr %5, align 8
  %76 = load ptr, ptr %7, align 8
  %77 = load i32, ptr %76, align 4
  %78 = load i32, ptr %9, align 4
  %79 = load ptr, ptr %10, align 8
  %80 = call ptr @proto_tree_add_string(ptr noundef %73, i32 noundef %74, ptr noundef %75, i32 noundef %77, i32 noundef %78, ptr noundef %79)
  %81 = load i32, ptr %9, align 4
  %82 = load ptr, ptr %7, align 8
  %83 = load i32, ptr %82, align 4
  %84 = add i32 %83, %81
  store i32 %84, ptr %82, align 4
  %85 = load ptr, ptr %5, align 8
  %86 = load ptr, ptr %6, align 8
  %87 = load ptr, ptr %7, align 8
  call void @dissect_zcl_scenes_extension_fields(ptr noundef %85, ptr noundef %86, ptr noundef %87)
  call void @llvm.lifetime.end.p0(i64 8, ptr %10) #7
  call void @llvm.lifetime.end.p0(i64 4, ptr %9) #7
  ret void
}