; Function Attrs: null_pointer_is_valid sspstrong uwtable
define internal fastcc void @dissect_zcl_scenes_add_scene(ptr noundef %0, ptr noundef %1, ptr noundef captures(none) %2, i1 noundef zeroext %3) unnamed_addr #0 {
  %5 = load i32, ptr @hf_zbee_zcl_scenes_group_id, align 4
  %6 = load i32, ptr %2, align 4
  %7 = tail call ptr @proto_tree_add_item(ptr noundef %1, i32 noundef %5, ptr noundef %0, i32 noundef %6, i32 noundef 2, i32 noundef -2147483648)
  %8 = load i32, ptr %2, align 4
  %9 = add i32 %8, 2
  store i32 %9, ptr %2, align 4
  %10 = load i32, ptr @hf_zbee_zcl_scenes_scene_id, align 4
  %11 = tail call ptr @proto_tree_add_item(ptr noundef %1, i32 noundef %10, ptr noundef %0, i32 noundef %9, i32 noundef 1, i32 noundef -2147483648)
  %12 = load i32, ptr %2, align 4
  %13 = add i32 %12, 1
  store i32 %13, ptr %2, align 4
  %14 = load i32, ptr @hf_zbee_zcl_scenes_enh_transit_time, align 4
  %15 = load i32, ptr @hf_zbee_zcl_scenes_transit_time, align 4
  %16 = select i1 %3, i32 %14, i32 %15
  %17 = tail call ptr @proto_tree_add_item(ptr noundef %1, i32 noundef %16, ptr noundef %0, i32 noundef %13, i32 noundef 2, i32 noundef -2147483648)
  %18 = load i32, ptr %2, align 4
  %19 = add i32 %18, 2
  store i32 %19, ptr %2, align 4
  %20 = tail call zeroext i8 @tvb_get_uint8(ptr noundef %0, i32 noundef %19)
  %21 = icmp eq i8 %20, -1
  %narrow = select i1 %21, i8 0, i8 %20
  %spec.store.select = zext i8 %narrow to i32
  %22 = load i32, ptr @hf_zbee_zcl_scenes_attr_str_len, align 4
  %23 = load i32, ptr %2, align 4
  %24 = tail call ptr @proto_tree_add_uint(ptr noundef %1, i32 noundef %22, ptr noundef %0, i32 noundef %23, i32 noundef 1, i32 noundef %spec.store.select)
  %25 = load i32, ptr %2, align 4
  %26 = add i32 %25, 1
  store i32 %26, ptr %2, align 4
  %27 = tail call ptr @wmem_packet_scope()
  %28 = load i32, ptr %2, align 4
  %29 = tail call ptr @tvb_get_string_enc(ptr noundef %27, ptr noundef %0, i32 noundef %28, i32 noundef %spec.store.select, i32 noundef 0)
  tail call void (ptr, ptr, ...) @proto_item_append_text(ptr noundef %1, ptr noundef nonnull @.str.1256, ptr noundef %29)
  %30 = load i32, ptr @hf_zbee_zcl_scenes_attr_str, align 4
  %31 = load i32, ptr %2, align 4
  %32 = tail call ptr @proto_tree_add_string(ptr noundef %1, i32 noundef %30, ptr noundef %0, i32 noundef %31, i32 noundef %spec.store.select, ptr noundef %29)
  %33 = load i32, ptr %2, align 4
  %34 = add i32 %33, %spec.store.select
  store i32 %34, ptr %2, align 4
  tail call fastcc void @dissect_zcl_scenes_extension_fields(ptr noundef %0, ptr noundef %1, ptr noundef %2)
  ret void
}